target datalayout = "e-m:e-p270:32:32-p271:32:32-p272:64:64-i64:64-i128:128-f80:128-n8:16:32:64-S128"
target triple = "x86_64-pc-linux-gnu"

%struct.RClass_and_rb_classext_t = type { %struct.RClass, %struct.rb_classext_struct }
%struct.RClass = type { %struct.RBasic, i64, ptr }
%struct.RBasic = type { i64, i64 }
%struct.rb_classext_struct = type { ptr, ptr, ptr, ptr, ptr, i64, ptr, ptr, ptr, ptr, i64, i64, %union.anon, i64, i32, i8, i8, i64 }
%union.anon = type { %struct.anon }
%struct.anon = type { ptr }
%struct.rb_subclass_entry = type { i64, ptr, ptr }

; Function Attrs: nounwind sspstrong uwtable
define internal ptr @push_subclass_entry_to_list(i64 noundef %0, i64 noundef %1) #0 {
  %3 = alloca i64, align 8
  %4 = alloca i64, align 8
  %5 = alloca ptr, align 8
  %6 = alloca ptr, align 8
  store i64 %0, ptr %3, align 8, !tbaa !7
  store i64 %1, ptr %4, align 8, !tbaa !7
  call void @llvm.lifetime.start.p0(i64 8, ptr %5) #23
  call void @llvm.lifetime.start.p0(i64 8, ptr %6) #23
  %7 = call noalias nonnull ptr @ruby_xcalloc(i64 noundef 1, i64 noundef 24) #24
  store ptr %7, ptr %5, align 8, !tbaa !11
  %8 = load i64, ptr %4, align 8, !tbaa !7
  %9 = load ptr, ptr %5, align 8, !tbaa !11
  %10 = getelementptr inbounds nuw %struct.rb_subclass_entry, ptr %9, i32 0, i32 0
  store i64 %8, ptr %10, align 8, !tbaa !23
  %11 = load i64, ptr %3, align 8, !tbaa !7
  %12 = inttoptr i64 %11 to ptr
  %13 = getelementptr inbounds nuw %struct.RClass_and_rb_classext_t, ptr %12, i32 0, i32 1
  %14 = getelementptr inbounds nuw %struct.rb_classext_struct, ptr %13, i32 0, i32 7
  %15 = load ptr, ptr %14, align 8, !tbaa !25
  store ptr %15, ptr %6, align 8, !tbaa !11
  %16 = load ptr, ptr %6, align 8, !tbaa !11
  %17 = icmp ne ptr %16, null
  br i1 %17, label %25, label %18

18:                                               ; preds = %2
  %19 = call noalias nonnull ptr @ruby_xcalloc(i64 noundef 1, i64 noundef 24) #24
  store ptr %19, ptr %6, align 8, !tbaa !11
  %20 = load ptr, ptr %6, align 8, !tbaa !11
  %21 = load i64, ptr %3, align 8, !tbaa !7
  %22 = inttoptr i64 %21 to ptr
  %23 = getelementptr inbounds nuw %struct.RClass_and_rb_classext_t, ptr %22, i32 0, i32 1
  %24 = getelementptr inbounds nuw %struct.rb_classext_struct, ptr %23, i32 0, i32 7
  store ptr %20, ptr %24, align 8, !tbaa !25
  br label %25

25:                                               ; preds = %18, %2
  %26 = load ptr, ptr %6, align 8, !tbaa !11
  %27 = getelementptr inbounds nuw %struct.rb_subclass_entry, ptr %26, i32 0, i32 1
  %28 = load ptr, ptr %27, align 8, !tbaa !26
  %29 = load ptr, ptr %5, align 8, !tbaa !11
  %30 = getelementptr inbounds nuw %struct.rb_subclass_entry, ptr %29, i32 0, i32 1
  store ptr %28, ptr %30, align 8, !tbaa !26
  %31 = load ptr, ptr %6, align 8, !tbaa !11
  %32 = load ptr, ptr %5, align 8, !tbaa !11
  %33 = getelementptr inbounds nuw %struct.rb_subclass_entry, ptr %32, i32 0, i32 2
  store ptr %31, ptr %33, align 8, !tbaa !27
  %34 = load ptr, ptr %6, align 8, !tbaa !11
  %35 = getelementptr inbounds nuw %struct.rb_subclass_entry, ptr %34, i32 0, i32 1
  %36 = load ptr, ptr %35, align 8, !tbaa !26
  %37 = icmp ne ptr %36, null
  br i1 %37, label %38, label %44

38:                                               ; preds = %25
  %39 = load ptr, ptr %5, align 8, !tbaa !11
  %40 = load ptr, ptr %6, align 8, !tbaa !11
  %41 = getelementptr inbounds nuw %struct.rb_subclass_entry, ptr %40, i32 0, i32 1
  %42 = load ptr, ptr %41, align 8, !tbaa !26
  %43 = getelementptr inbounds nuw %struct.rb_subclass_entry, ptr %42, i32 0, i32 2
  store ptr %39, ptr %43, align 8, !tbaa !27
  br label %44

44:                                               ; preds = %38, %25
  %45 = load ptr, ptr %5, align 8, !tbaa !11
  %46 = load ptr, ptr %6, align 8, !tbaa !11
  %47 = getelementptr inbounds nuw %struct.rb_subclass_entry, ptr %46, i32 0, i32 1
  store ptr %45, ptr %47, align 8, !tbaa !26
  %48 = load ptr, ptr %5, align 8, !tbaa !11
  call void @llvm.lifetime.end.p0(i64 8, ptr %6) #23
  call void @llvm.lifetime.end.p0(i64 8, ptr %5) #23
  ret ptr %48
}

; Function Attrs: inlinehint nounwind sspstrong willreturn memory(none) uwtable
define internal zeroext i1 @RB_UNDEF_P(i64 noundef %0) #1 {
  %2 = alloca i64, align 8
  store i64 %0, ptr %2, align 8, !tbaa !7
  %3 = load i64, ptr %2, align 8, !tbaa !7
  %4 = icmp eq i64 %3, 36
  ret i1 %4
}

; Function Attrs: nounwind sspstrong uwtable
define hidden void @rb_class_subclass_add(i64 noundef %0, i64 noundef %1) #0 {
  %3 = alloca i64, align 8
  %4 = alloca i64, align 8
  %5 = alloca ptr, align 8
  store i64 %0, ptr %3, align 8, !tbaa !7
  store i64 %1, ptr %4, align 8, !tbaa !7
  %6 = load i64, ptr %3, align 8, !tbaa !7
  %7 = icmp ne i64 %6, 0
  br i1 %7, label %8, label %20

8:                                                ; preds = %2
  %9 = load i64, ptr %3, align 8, !tbaa !7
  %10 = call zeroext i1 @RB_UNDEF_P(i64 noundef %9) #22
  br i1 %10, label %20, label %11

11:                                               ; preds = %8
  call void @llvm.lifetime.start.p0(i64 8, ptr %5) #23
  %12 = load i64, ptr %3, align 8, !tbaa !7
  %13 = load i64, ptr %4, align 8, !tbaa !7
  %14 = call ptr @push_subclass_entry_to_list(i64 noundef %12, i64 noundef %13)
  store ptr %14, ptr %5, align 8, !tbaa !11
  %15 = load ptr, ptr %5, align 8, !tbaa !11
  %16 = load i64, ptr %4, align 8, !tbaa !7
  %17 = inttoptr i64 %16 to ptr
  %18 = getelementptr inbounds nuw %struct.RClass_and_rb_classext_t, ptr %17, i32 0, i32 1
  %19 = getelementptr inbounds nuw %struct.rb_classext_struct, ptr %18, i32 0, i32 8
  store ptr %15, ptr %19, align 8, !tbaa !14
  call void @llvm.lifetime.end.p0(i64 8, ptr %5) #23
  br label %20

20:                                               ; preds = %11, %8, %2
  ret void
}