; Function Attrs: nounwind sspstrong uwtable
define hidden void @rb_class_subclass_add(i64 noundef %0, i64 noundef %1) local_unnamed_addr #0 {
  switch i64 %0, label %3 [
    i64 0, label %19
    i64 36, label %19
  ]

3:                                                ; preds = %2
  %4 = tail call noalias nonnull dereferenceable(24) ptr @ruby_xcalloc(i64 noundef 1, i64 noundef 24) #18
  store i64 %1, ptr %4, align 8, !tbaa !7
  %5 = inttoptr i64 %0 to ptr
  %6 = getelementptr inbounds nuw i8, ptr %5, i64 88
  %7 = load ptr, ptr %6, align 8, !tbaa !14
  %.not.i = icmp eq ptr %7, null
  br i1 %.not.i, label %8, label %10

8:                                                ; preds = %3
  %9 = tail call noalias nonnull dereferenceable(24) ptr @ruby_xcalloc(i64 noundef 1, i64 noundef 24) #18
  store ptr %9, ptr %6, align 8, !tbaa !14
  br label %10

10:                                               ; preds = %8, %3
  %.0.i = phi ptr [ %7, %3 ], [ %9, %8 ]
  %11 = getelementptr inbounds nuw i8, ptr %.0.i, i64 8
  %12 = load ptr, ptr %11, align 8, !tbaa !23
  %13 = getelementptr inbounds nuw i8, ptr %4, i64 8
  store ptr %12, ptr %13, align 8, !tbaa !23
  %14 = getelementptr inbounds nuw i8, ptr %4, i64 16
  store ptr %.0.i, ptr %14, align 8, !tbaa !24
  %.not17.i = icmp eq ptr %12, null
  br i1 %.not17.i, label %push_subclass_entry_to_list.exit, label %15

15:                                               ; preds = %10
  %16 = getelementptr inbounds nuw i8, ptr %12, i64 16
  store ptr %4, ptr %16, align 8, !tbaa !24
  br label %push_subclass_entry_to_list.exit

push_subclass_entry_to_list.exit:                 ; preds = %10, %15
  store ptr %4, ptr %11, align 8, !tbaa !23
  %17 = inttoptr i64 %1 to ptr
  %18 = getelementptr inbounds nuw i8, ptr %17, i64 96
  store ptr %4, ptr %18, align 8, !tbaa !25
  br label %19

19:                                               ; preds = %2, %2, %push_subclass_entry_to_list.exit
  ret void
}